target datalayout = "e-m:e-p270:32:32-p271:32:32-p272:64:64-i64:64-i128:128-f80:128-n8:16:32:64-S128"
target triple = "x86_64-pc-linux-gnu"

%struct.evp_cipher_st = type { i32, i32, i32, i32, i64, i32, ptr, ptr, ptr, i32, ptr, ptr, ptr, ptr, i32, ptr, ptr, ptr, %struct.CRYPTO_REF_COUNT, ptr, ptr, ptr, ptr, ptr, ptr, ptr, ptr, ptr, ptr, ptr, ptr, ptr, ptr, ptr, ptr, ptr, ptr, ptr, ptr }
%struct.CRYPTO_REF_COUNT = type { i32 }

@.str = private unnamed_addr constant [32 x i8] c"../openssl/crypto/evp/evp_enc.c\00", align 1

; Function Attrs: inlinehint nounwind uwtable
define internal void @CRYPTO_FREE_REF(ptr noundef %0) #6 {
  %2 = alloca ptr, align 8
  store ptr %0, ptr %2, align 8, !tbaa !81
  ret void
}

; Function Attrs: nounwind uwtable
define void @evp_cipher_free_int(ptr noundef %0) #0 {
  %2 = alloca ptr, align 8
  store ptr %0, ptr %2, align 8, !tbaa !27
  %3 = load ptr, ptr %2, align 8, !tbaa !27
  %4 = getelementptr inbounds nuw %struct.evp_cipher_st, ptr %3, i32 0, i32 15
  %5 = load ptr, ptr %4, align 8, !tbaa !107
  call void @CRYPTO_free(ptr noundef %5, ptr noundef @.str, i32 noundef 2105)
  %6 = load ptr, ptr %2, align 8, !tbaa !27
  %7 = getelementptr inbounds nuw %struct.evp_cipher_st, ptr %6, i32 0, i32 17
  %8 = load ptr, ptr %7, align 8, !tbaa !14
  call void @ossl_provider_free(ptr noundef %8)
  %9 = load ptr, ptr %2, align 8, !tbaa !27
  %10 = getelementptr inbounds nuw %struct.evp_cipher_st, ptr %9, i32 0, i32 18
  call void @CRYPTO_FREE_REF(ptr noundef %10)
  %11 = load ptr, ptr %2, align 8, !tbaa !27
  call void @CRYPTO_free(ptr noundef %11, ptr noundef @.str, i32 noundef 2108)
  ret void
}