; Function Attrs: nounwind uwtable
define void @evp_cipher_free_int(ptr noundef %0) local_unnamed_addr #0 {
  %2 = getelementptr inbounds nuw i8, ptr %0, i64 104
  %3 = load ptr, ptr %2, align 8, !tbaa !21
  tail call void @CRYPTO_free(ptr noundef %3, ptr noundef nonnull @.str, i32 noundef 2105) #10
  %4 = getelementptr inbounds nuw i8, ptr %0, i64 120
  %5 = load ptr, ptr %4, align 8, !tbaa !12
  tail call void @ossl_provider_free(ptr noundef %5) #10
  tail call void @CRYPTO_free(ptr noundef %0, ptr noundef nonnull @.str, i32 noundef 2108) #10
  ret void
}